target datalayout = "e-m:e-p270:32:32-p271:32:32-p272:64:64-i64:64-i128:128-f80:128-n8:16:32:64-S128"
target triple = "x86_64-pc-linux-gnu"

%struct.H5P_libclass_t = type { ptr, i32, ptr, ptr, ptr, ptr, ptr, ptr, ptr, ptr, ptr, ptr, ptr }
%struct.H5VL_loc_params_t = type { i32, i32, %union.anon }
%union.anon = type { %struct.H5VL_loc_by_idx }
%struct.H5VL_loc_by_idx = type { ptr, i32, i32, i64, i64 }

@H5_libterm_g = external global i8, align 1
@.str = private unnamed_addr constant [97 x i8] c"generated/home/dtcxzyw/WorkSpace/Projects/compilers/llvm-opt-benchmark/bench/hdf5/hdf5/src/H5G.c\00", align 1
@H5G_init_g = external global i8, align 1
@H5E_CANTSET_g = external global i64, align 8
@H5E_SYM_g = external global i64, align 8
@H5E_ARGS_g = external global i64, align 8
@H5P_CLS_GACC = external constant [1 x %struct.H5P_libclass_t], align 16
@H5P_LST_DATASET_XFER_ID_g = external global i64, align 8
@H5E_CANTREGISTER_g = external global i64, align 8
@H5E_CLOSEERROR_g = external global i64, align 8
@.str.24 = private unnamed_addr constant [24 x i8] c"unable to release group\00", align 1
@H5E_BADVALUE_g = external global i64, align 8
@.str.51 = private unnamed_addr constant [30 x i8] c"name parameter cannot be NULL\00", align 1
@.str.52 = private unnamed_addr constant [41 x i8] c"name parameter cannot be an empty string\00", align 1
@.str.53 = private unnamed_addr constant [34 x i8] c"can't set object access arguments\00", align 1
@__func__.H5G__open_api_common = private unnamed_addr constant [21 x i8] c"H5G__open_api_common\00", align 1
@H5E_CANTOPENOBJ_g = external global i64, align 8
@.str.56 = private unnamed_addr constant [21 x i8] c"unable to open group\00", align 1
@.str.57 = private unnamed_addr constant [25 x i8] c"unable to register group\00", align 1

; Function Attrs: nounwind uwtable
define internal i64 @H5G__open_api_common(i64 noundef %0, ptr noundef %1, i64 noundef %2, ptr noundef %3, ptr noundef %4) #0 {
  %6 = alloca i64, align 8
  %7 = alloca ptr, align 8
  %8 = alloca i64, align 8
  %9 = alloca ptr, align 8
  %10 = alloca ptr, align 8
  %11 = alloca ptr, align 8
  %12 = alloca ptr, align 8
  %13 = alloca ptr, align 8
  %14 = alloca %struct.H5VL_loc_params_t, align 8
  %15 = alloca i64, align 8
  %16 = alloca i8, align 1
  store i64 %0, ptr %6, align 8, !tbaa !3
  store ptr %1, ptr %7, align 8, !tbaa !7
  store i64 %2, ptr %8, align 8, !tbaa !3
  store ptr %3, ptr %9, align 8, !tbaa !14
  store ptr %4, ptr %10, align 8, !tbaa !15
  call void @llvm.lifetime.start.p0(i64 8, ptr %11) #5
  store ptr null, ptr %11, align 8, !tbaa !14
  call void @llvm.lifetime.start.p0(i64 8, ptr %12) #5
  store ptr null, ptr %12, align 8, !tbaa !17
  call void @llvm.lifetime.start.p0(i64 8, ptr %13) #5
  %17 = load ptr, ptr %10, align 8, !tbaa !15
  %18 = icmp ne ptr %17, null
  br i1 %18, label %19, label %21

19:                                               ; preds = %5
  %20 = load ptr, ptr %10, align 8, !tbaa !15
  br label %22

21:                                               ; preds = %5
  br label %22

22:                                               ; preds = %21, %19
  %23 = phi ptr [ %20, %19 ], [ %12, %21 ]
  store ptr %23, ptr %13, align 8, !tbaa !15
  call void @llvm.lifetime.start.p0(i64 40, ptr %14) #5
  call void @llvm.lifetime.start.p0(i64 8, ptr %15) #5
  store i64 -1, ptr %15, align 8, !tbaa !3
  call void @llvm.lifetime.start.p0(i64 1, ptr %16) #5
  store i8 0, ptr %16, align 1, !tbaa !10
  %24 = load i8, ptr @H5G_init_g, align 1, !tbaa !10, !range !12, !noundef !13
  %25 = trunc i8 %24 to i1
  br i1 %25, label %30, label %26

26:                                               ; preds = %22
  %27 = load i8, ptr @H5_libterm_g, align 1, !tbaa !10, !range !12, !noundef !13
  %28 = trunc i8 %27 to i1
  %29 = xor i1 %28, true
  br label %30

30:                                               ; preds = %26, %22
  %31 = phi i1 [ true, %22 ], [ %29, %26 ]
  %32 = xor i1 %31, true
  %33 = xor i1 %32, true
  %34 = zext i1 %33 to i32
  %35 = sext i32 %34 to i64
  %36 = call i64 @llvm.expect.i64(i64 %35, i64 1)
  %37 = icmp ne i64 %36, 0
  br i1 %37, label %38, label %192

38:                                               ; preds = %30
  %39 = load ptr, ptr %7, align 8, !tbaa !7
  %40 = icmp ne ptr %39, null
  br i1 %40, label %60, label %41

41:                                               ; preds = %38
  br label %42

42:                                               ; preds = %41
  br label %43

43:                                               ; preds = %42
  br label %44

44:                                               ; preds = %43
  %45 = load i64, ptr @H5E_ARGS_g, align 8, !tbaa !3
  %46 = load i64, ptr @H5E_BADVALUE_g, align 8, !tbaa !3
  %47 = call i32 (ptr, ptr, i32, i64, i64, ptr, ...) @H5E_printf_stack(ptr noundef @.str, ptr noundef @__func__.H5G__open_api_common, i32 noundef 389, i64 noundef %45, i64 noundef %46, ptr noundef @.str.51)
  br label %48

48:                                               ; preds = %44
  br label %49

49:                                               ; preds = %48
  store i8 1, ptr %16, align 1, !tbaa !10
  %50 = load i8, ptr %16, align 1, !tbaa !10, !range !12, !noundef !13
  %51 = trunc i8 %50 to i1
  %52 = zext i1 %51 to i8
  store i8 %52, ptr %16, align 1, !tbaa !10
  br label %53

53:                                               ; preds = %49
  br label %54

54:                                               ; preds = %53
  br label %55

55:                                               ; preds = %54
  store i64 -1, ptr %15, align 8, !tbaa !3
  br label %162

56:                                               ; No predecessors!
  br label %57

57:                                               ; preds = %56
  br label %58

58:                                               ; preds = %57
  br label %59

59:                                               ; preds = %58
  br label %60

60:                                               ; preds = %59, %38
  %61 = load ptr, ptr %7, align 8, !tbaa !7
  %62 = load i8, ptr %61, align 1, !tbaa !19
  %63 = icmp ne i8 %62, 0
  br i1 %63, label %83, label %64

64:                                               ; preds = %60
  br label %65

65:                                               ; preds = %64
  br label %66

66:                                               ; preds = %65
  br label %67

67:                                               ; preds = %66
  %68 = load i64, ptr @H5E_ARGS_g, align 8, !tbaa !3
  %69 = load i64, ptr @H5E_BADVALUE_g, align 8, !tbaa !3
  %70 = call i32 (ptr, ptr, i32, i64, i64, ptr, ...) @H5E_printf_stack(ptr noundef @.str, ptr noundef @__func__.H5G__open_api_common, i32 noundef 391, i64 noundef %68, i64 noundef %69, ptr noundef @.str.52)
  br label %71

71:                                               ; preds = %67
  br label %72

72:                                               ; preds = %71
  store i8 1, ptr %16, align 1, !tbaa !10
  %73 = load i8, ptr %16, align 1, !tbaa !10, !range !12, !noundef !13
  %74 = trunc i8 %73 to i1
  %75 = zext i1 %74 to i8
  store i8 %75, ptr %16, align 1, !tbaa !10
  br label %76

76:                                               ; preds = %72
  br label %77

77:                                               ; preds = %76
  br label %78

78:                                               ; preds = %77
  store i64 -1, ptr %15, align 8, !tbaa !3
  br label %162

79:                                               ; No predecessors!
  br label %80

80:                                               ; preds = %79
  br label %81

81:                                               ; preds = %80
  br label %82

82:                                               ; preds = %81
  br label %83

83:                                               ; preds = %82, %60
  %84 = load i64, ptr %6, align 8, !tbaa !3
  %85 = load ptr, ptr %13, align 8, !tbaa !15
  %86 = call i32 @H5VL_setup_acc_args(i64 noundef %84, ptr noundef @H5P_CLS_GACC, i1 noundef zeroext false, ptr noundef %8, ptr noundef %85, ptr noundef %14)
  %87 = icmp slt i32 %86, 0
  br i1 %87, label %88, label %107

88:                                               ; preds = %83
  br label %89

89:                                               ; preds = %88
  br label %90

90:                                               ; preds = %89
  br label %91

91:                                               ; preds = %90
  %92 = load i64, ptr @H5E_SYM_g, align 8, !tbaa !3
  %93 = load i64, ptr @H5E_CANTSET_g, align 8, !tbaa !3
  %94 = call i32 (ptr, ptr, i32, i64, i64, ptr, ...) @H5E_printf_stack(ptr noundef @.str, ptr noundef @__func__.H5G__open_api_common, i32 noundef 395, i64 noundef %92, i64 noundef %93, ptr noundef @.str.53)
  br label %95

95:                                               ; preds = %91
  br label %96

96:                                               ; preds = %95
  store i8 1, ptr %16, align 1, !tbaa !10
  %97 = load i8, ptr %16, align 1, !tbaa !10, !range !12, !noundef !13
  %98 = trunc i8 %97 to i1
  %99 = zext i1 %98 to i8
  store i8 %99, ptr %16, align 1, !tbaa !10
  br label %100

100:                                              ; preds = %96
  br label %101

101:                                              ; preds = %100
  br label %102

102:                                              ; preds = %101
  store i64 -1, ptr %15, align 8, !tbaa !3
  br label %162

103:                                              ; No predecessors!
  br label %104

104:                                              ; preds = %103
  br label %105

105:                                              ; preds = %104
  br label %106

106:                                              ; preds = %105
  br label %107

107:                                              ; preds = %106, %83
  %108 = load ptr, ptr %13, align 8, !tbaa !15
  %109 = load ptr, ptr %108, align 8, !tbaa !17
  %110 = load ptr, ptr %7, align 8, !tbaa !7
  %111 = load i64, ptr %8, align 8, !tbaa !3
  %112 = load i64, ptr @H5P_LST_DATASET_XFER_ID_g, align 8, !tbaa !3
  %113 = load ptr, ptr %9, align 8, !tbaa !14
  %114 = call ptr @H5VL_group_open(ptr noundef %109, ptr noundef %14, ptr noundef %110, i64 noundef %111, i64 noundef %112, ptr noundef %113)
  store ptr %114, ptr %11, align 8, !tbaa !14
  %115 = icmp eq ptr null, %114
  br i1 %115, label %116, label %135

116:                                              ; preds = %107
  br label %117

117:                                              ; preds = %116
  br label %118

118:                                              ; preds = %117
  br label %119

119:                                              ; preds = %118
  %120 = load i64, ptr @H5E_SYM_g, align 8, !tbaa !3
  %121 = load i64, ptr @H5E_CANTOPENOBJ_g, align 8, !tbaa !3
  %122 = call i32 (ptr, ptr, i32, i64, i64, ptr, ...) @H5E_printf_stack(ptr noundef @.str, ptr noundef @__func__.H5G__open_api_common, i32 noundef 399, i64 noundef %120, i64 noundef %121, ptr noundef @.str.56)
  br label %123

123:                                              ; preds = %119
  br label %124

124:                                              ; preds = %123
  store i8 1, ptr %16, align 1, !tbaa !10
  %125 = load i8, ptr %16, align 1, !tbaa !10, !range !12, !noundef !13
  %126 = trunc i8 %125 to i1
  %127 = zext i1 %126 to i8
  store i8 %127, ptr %16, align 1, !tbaa !10
  br label %128

128:                                              ; preds = %124
  br label %129

129:                                              ; preds = %128
  br label %130

130:                                              ; preds = %129
  store i64 -1, ptr %15, align 8, !tbaa !3
  br label %162

131:                                              ; No predecessors!
  br label %132

132:                                              ; preds = %131
  br label %133

133:                                              ; preds = %132
  br label %134

134:                                              ; preds = %133
  br label %135

135:                                              ; preds = %134, %107
  %136 = load ptr, ptr %11, align 8, !tbaa !14
  %137 = load ptr, ptr %13, align 8, !tbaa !15
  %138 = load ptr, ptr %137, align 8, !tbaa !17
  %139 = call ptr @H5VL_obj_get_connector(ptr noundef %138)
  %140 = call i64 @H5VL_register(i32 noundef 2, ptr noundef %136, ptr noundef %139, i1 noundef zeroext true)
  store i64 %140, ptr %15, align 8, !tbaa !3
  %141 = icmp slt i64 %140, 0
  br i1 %141, label %142, label %161

142:                                              ; preds = %135
  br label %143

143:                                              ; preds = %142
  br label %144

144:                                              ; preds = %143
  br label %145

145:                                              ; preds = %144
  %146 = load i64, ptr @H5E_SYM_g, align 8, !tbaa !3
  %147 = load i64, ptr @H5E_CANTREGISTER_g, align 8, !tbaa !3
  %148 = call i32 (ptr, ptr, i32, i64, i64, ptr, ...) @H5E_printf_stack(ptr noundef @.str, ptr noundef @__func__.H5G__open_api_common, i32 noundef 403, i64 noundef %146, i64 noundef %147, ptr noundef @.str.57)
  br label %149

149:                                              ; preds = %145
  br label %150

150:                                              ; preds = %149
  store i8 1, ptr %16, align 1, !tbaa !10
  %151 = load i8, ptr %16, align 1, !tbaa !10, !range !12, !noundef !13
  %152 = trunc i8 %151 to i1
  %153 = zext i1 %152 to i8
  store i8 %153, ptr %16, align 1, !tbaa !10
  br label %154

154:                                              ; preds = %150
  br label %155

155:                                              ; preds = %154
  br label %156

156:                                              ; preds = %155
  store i64 -1, ptr %15, align 8, !tbaa !3
  br label %162

157:                                              ; No predecessors!
  br label %158

158:                                              ; preds = %157
  br label %159

159:                                              ; preds = %158
  br label %160

160:                                              ; preds = %159
  br label %161

161:                                              ; preds = %160, %135
  br label %162

162:                                              ; preds = %161, %156, %130, %102, %78, %55
  %163 = load i64, ptr %15, align 8, !tbaa !3
  %164 = icmp eq i64 -1, %163
  br i1 %164, label %165, label %191

165:                                              ; preds = %162
  %166 = load ptr, ptr %11, align 8, !tbaa !14
  %167 = icmp ne ptr %166, null
  br i1 %167, label %168, label %190

168:                                              ; preds = %165
  %169 = load ptr, ptr %13, align 8, !tbaa !15
  %170 = load ptr, ptr %169, align 8, !tbaa !17
  %171 = load i64, ptr @H5P_LST_DATASET_XFER_ID_g, align 8, !tbaa !3
  %172 = call i32 @H5VL_group_close(ptr noundef %170, i64 noundef %171, ptr noundef null)
  %173 = icmp slt i32 %172, 0
  br i1 %173, label %174, label %190

174:                                              ; preds = %168
  br label %175

175:                                              ; preds = %174
  br label %176

176:                                              ; preds = %175
  br label %177

177:                                              ; preds = %176
  %178 = load i64, ptr @H5E_SYM_g, align 8, !tbaa !3
  %179 = load i64, ptr @H5E_CLOSEERROR_g, align 8, !tbaa !3
  %180 = call i32 (ptr, ptr, i32, i64, i64, ptr, ...) @H5E_printf_stack(ptr noundef @.str, ptr noundef @__func__.H5G__open_api_common, i32 noundef 408, i64 noundef %178, i64 noundef %179, ptr noundef @.str.24)
  br label %181

181:                                              ; preds = %177
  br label %182

182:                                              ; preds = %181
  store i8 1, ptr %16, align 1, !tbaa !10
  %183 = load i8, ptr %16, align 1, !tbaa !10, !range !12, !noundef !13
  %184 = trunc i8 %183 to i1
  %185 = zext i1 %184 to i8
  store i8 %185, ptr %16, align 1, !tbaa !10
  br label %186

186:                                              ; preds = %182
  br label %187

187:                                              ; preds = %186
  store i64 -1, ptr %15, align 8, !tbaa !3
  br label %188

188:                                              ; preds = %187
  br label %189

189:                                              ; preds = %188
  br label %190

190:                                              ; preds = %189, %168, %165
  br label %191

191:                                              ; preds = %190, %162
  br label %192

192:                                              ; preds = %191, %30
  %193 = load i64, ptr %15, align 8, !tbaa !3
  call void @llvm.lifetime.end.p0(i64 1, ptr %16) #5
  call void @llvm.lifetime.end.p0(i64 8, ptr %15) #5
  call void @llvm.lifetime.end.p0(i64 40, ptr %14) #5
  call void @llvm.lifetime.end.p0(i64 8, ptr %13) #5
  call void @llvm.lifetime.end.p0(i64 8, ptr %12) #5
  call void @llvm.lifetime.end.p0(i64 8, ptr %11) #5
  ret i64 %193
}