; Function Attrs: nounwind uwtable
define internal fastcc range(i64 -1, -9223372036854775808) i64 @H5G__open_api_common(i64 noundef %0, ptr noundef %1, i64 noundef %2, ptr noundef %3, ptr noundef %4) unnamed_addr #0 {
  %6 = alloca i64, align 8
  %7 = alloca ptr, align 8
  %8 = alloca %struct.H5VL_loc_params_t, align 8
  store i64 %2, ptr %6, align 8, !tbaa !11
  call void @llvm.lifetime.start.p0(i64 8, ptr nonnull %7) #4
  store ptr null, ptr %7, align 8, !tbaa !15
  %.not = icmp eq ptr %4, null
  %9 = select i1 %.not, ptr %7, ptr %4
  call void @llvm.lifetime.start.p0(i64 40, ptr nonnull %8) #4
  %10 = load i8, ptr @H5G_init_g, align 1, !tbaa !3, !range !7, !noundef !8
  %11 = trunc nuw i8 %10 to i1
  %12 = load i8, ptr @H5_libterm_g, align 1, !range !7
  %13 = trunc nuw i8 %12 to i1
  %14 = xor i1 %13, true
  %15 = select i1 %11, i1 true, i1 %14
  br i1 %15, label %16, label %.thread, !prof !9

16:                                               ; preds = %5
  %.not26 = icmp eq ptr %1, null
  br i1 %.not26, label %17, label %21

17:                                               ; preds = %16
  %18 = load i64, ptr @H5E_ARGS_g, align 8, !tbaa !11
  %19 = load i64, ptr @H5E_BADVALUE_g, align 8, !tbaa !11
  %20 = tail call i32 (ptr, ptr, i32, i64, i64, ptr, ...) @H5E_printf_stack(ptr noundef nonnull @.str, ptr noundef nonnull @__func__.H5G__open_api_common, i32 noundef 389, i64 noundef %18, i64 noundef %19, ptr noundef nonnull @.str.51) #4
  br label %.thread

21:                                               ; preds = %16
  %22 = load i8, ptr %1, align 1, !tbaa !18
  %.not27 = icmp eq i8 %22, 0
  br i1 %.not27, label %23, label %27

23:                                               ; preds = %21
  %24 = load i64, ptr @H5E_ARGS_g, align 8, !tbaa !11
  %25 = load i64, ptr @H5E_BADVALUE_g, align 8, !tbaa !11
  %26 = tail call i32 (ptr, ptr, i32, i64, i64, ptr, ...) @H5E_printf_stack(ptr noundef nonnull @.str, ptr noundef nonnull @__func__.H5G__open_api_common, i32 noundef 391, i64 noundef %24, i64 noundef %25, ptr noundef nonnull @.str.52) #4
  br label %.thread

27:                                               ; preds = %21
  %28 = call i32 @H5VL_setup_acc_args(i64 noundef %0, ptr noundef nonnull @H5P_CLS_GACC, i1 noundef zeroext false, ptr noundef nonnull %6, ptr noundef nonnull %9, ptr noundef nonnull %8) #4
  %29 = icmp slt i32 %28, 0
  br i1 %29, label %30, label %34

30:                                               ; preds = %27
  %31 = load i64, ptr @H5E_SYM_g, align 8, !tbaa !11
  %32 = load i64, ptr @H5E_CANTSET_g, align 8, !tbaa !11
  %33 = call i32 (ptr, ptr, i32, i64, i64, ptr, ...) @H5E_printf_stack(ptr noundef nonnull @.str, ptr noundef nonnull @__func__.H5G__open_api_common, i32 noundef 395, i64 noundef %31, i64 noundef %32, ptr noundef nonnull @.str.53) #4
  br label %.thread

34:                                               ; preds = %27
  %35 = load ptr, ptr %9, align 8, !tbaa !15
  %36 = load i64, ptr %6, align 8, !tbaa !11
  %37 = load i64, ptr @H5P_LST_DATASET_XFER_ID_g, align 8, !tbaa !11
  %38 = call ptr @H5VL_group_open(ptr noundef %35, ptr noundef nonnull %8, ptr noundef nonnull %1, i64 noundef %36, i64 noundef %37, ptr noundef %3) #4
  %39 = icmp eq ptr %38, null
  br i1 %39, label %40, label %44

40:                                               ; preds = %34
  %41 = load i64, ptr @H5E_SYM_g, align 8, !tbaa !11
  %42 = load i64, ptr @H5E_CANTOPENOBJ_g, align 8, !tbaa !11
  %43 = call i32 (ptr, ptr, i32, i64, i64, ptr, ...) @H5E_printf_stack(ptr noundef nonnull @.str, ptr noundef nonnull @__func__.H5G__open_api_common, i32 noundef 399, i64 noundef %41, i64 noundef %42, ptr noundef nonnull @.str.56) #4
  br label %.thread

44:                                               ; preds = %34
  %45 = load ptr, ptr %9, align 8, !tbaa !15
  %46 = call ptr @H5VL_obj_get_connector(ptr noundef %45) #4
  %47 = call i64 @H5VL_register(i32 noundef 2, ptr noundef nonnull %38, ptr noundef %46, i1 noundef zeroext true) #4
  %48 = icmp slt i64 %47, 0
  br i1 %48, label %49, label %.thread

49:                                               ; preds = %44
  %50 = load i64, ptr @H5E_SYM_g, align 8, !tbaa !11
  %51 = load i64, ptr @H5E_CANTREGISTER_g, align 8, !tbaa !11
  %52 = call i32 (ptr, ptr, i32, i64, i64, ptr, ...) @H5E_printf_stack(ptr noundef nonnull @.str, ptr noundef nonnull @__func__.H5G__open_api_common, i32 noundef 403, i64 noundef %50, i64 noundef %51, ptr noundef nonnull @.str.57) #4
  %53 = load ptr, ptr %9, align 8, !tbaa !15
  %54 = load i64, ptr @H5P_LST_DATASET_XFER_ID_g, align 8, !tbaa !11
  %55 = call i32 @H5VL_group_close(ptr noundef %53, i64 noundef %54, ptr noundef null) #4
  %56 = icmp slt i32 %55, 0
  br i1 %56, label %57, label %.thread

57:                                               ; preds = %49
  %58 = load i64, ptr @H5E_SYM_g, align 8, !tbaa !11
  %59 = load i64, ptr @H5E_CLOSEERROR_g, align 8, !tbaa !11
  %60 = call i32 (ptr, ptr, i32, i64, i64, ptr, ...) @H5E_printf_stack(ptr noundef nonnull @.str, ptr noundef nonnull @__func__.H5G__open_api_common, i32 noundef 408, i64 noundef %58, i64 noundef %59, ptr noundef nonnull @.str.24) #4
  br label %.thread

.thread:                                          ; preds = %17, %23, %40, %30, %44, %57, %49, %5
  %.0 = phi i64 [ -1, %57 ], [ -1, %49 ], [ -1, %5 ], [ -1, %17 ], [ -1, %23 ], [ %47, %44 ], [ -1, %40 ], [ -1, %30 ]
  call void @llvm.lifetime.end.p0(i64 40, ptr nonnull %8) #4
  call void @llvm.lifetime.end.p0(i64 8, ptr nonnull %7) #4
  ret i64 %.0
}